target datalayout = "e-m:e-p270:32:32-p271:32:32-p272:64:64-i64:64-i128:128-f80:128-n8:16:32:64-S128"
target triple = "x86_64-pc-linux-gnu"

%"class.OpenColorIO_v2_5dev::OpCPU" = type { ptr }
%"class.OpenColorIO_v2_5dev::Renderer_ACES_GamutComp13_Fwd" = type { %"class.OpenColorIO_v2_5dev::OpCPU", float, float, float, float, float, float, float, float, float, float }

; Function Attrs: inlinehint mustprogress nounwind uwtable
define linkonce_odr noundef float @_ZSt4fabsf(float noundef %0) #10 comdat {
  %2 = alloca float, align 4
  store float %0, ptr %2, align 4, !tbaa !31
  %3 = load float, ptr %2, align 4, !tbaa !31
  %4 = call float @llvm.fabs.f32(float %3)
  ret float %4
}

; Function Attrs: mustprogress uwtable
define linkonce_odr hidden noundef float @_ZN19OpenColorIO_v2_5dev10gamut_compIPFfffffEEEffffffT_(float noundef %0, float noundef %1, float noundef %2, float noundef %3, float noundef %4, ptr noundef %5) #6 comdat {
  %7 = alloca float, align 4
  %8 = alloca float, align 4
  %9 = alloca float, align 4
  %10 = alloca float, align 4
  %11 = alloca float, align 4
  %12 = alloca float, align 4
  %13 = alloca ptr, align 8
  %14 = alloca float, align 4
  %15 = alloca i32, align 4
  %16 = alloca float, align 4
  %17 = alloca float, align 4
  store float %0, ptr %8, align 4, !tbaa !31
  store float %1, ptr %9, align 4, !tbaa !31
  store float %2, ptr %10, align 4, !tbaa !31
  store float %3, ptr %11, align 4, !tbaa !31
  store float %4, ptr %12, align 4, !tbaa !31
  store ptr %5, ptr %13, align 8, !tbaa !26
  %18 = load float, ptr %9, align 4, !tbaa !31
  %19 = fcmp oeq float %18, 0.000000e+00
  br i1 %19, label %20, label %21

20:                                               ; preds = %6
  store float 0.000000e+00, ptr %7, align 4
  br label %48

21:                                               ; preds = %6
  call void @llvm.lifetime.start.p0(i64 4, ptr %14) #3
  %22 = load float, ptr %9, align 4, !tbaa !31
  %23 = load float, ptr %8, align 4, !tbaa !31
  %24 = fsub float %22, %23
  %25 = load float, ptr %9, align 4, !tbaa !31
  %26 = call noundef float @_ZSt4fabsf(float noundef %25)
  %27 = fdiv float %24, %26
  store float %27, ptr %14, align 4, !tbaa !31
  %28 = load float, ptr %14, align 4, !tbaa !31
  %29 = load float, ptr %10, align 4, !tbaa !31
  %30 = fcmp olt float %28, %29
  br i1 %30, label %31, label %33

31:                                               ; preds = %21
  %32 = load float, ptr %8, align 4, !tbaa !31
  store float %32, ptr %7, align 4
  store i32 1, ptr %15, align 4
  br label %47

33:                                               ; preds = %21
  call void @llvm.lifetime.start.p0(i64 4, ptr %16) #3
  %34 = load ptr, ptr %13, align 8, !tbaa !26
  %35 = load float, ptr %14, align 4, !tbaa !31
  %36 = load float, ptr %10, align 4, !tbaa !31
  %37 = load float, ptr %11, align 4, !tbaa !31
  %38 = load float, ptr %12, align 4, !tbaa !31
  %39 = call noundef float %34(float noundef %35, float noundef %36, float noundef %37, float noundef %38)
  store float %39, ptr %16, align 4, !tbaa !31
  call void @llvm.lifetime.start.p0(i64 4, ptr %17) #3
  %40 = load float, ptr %9, align 4, !tbaa !31
  %41 = load float, ptr %16, align 4, !tbaa !31
  %42 = load float, ptr %9, align 4, !tbaa !31
  %43 = call noundef float @_ZSt4fabsf(float noundef %42)
  %44 = fneg float %41
  %45 = call float @llvm.fmuladd.f32(float %44, float %43, float %40)
  store float %45, ptr %17, align 4, !tbaa !31
  %46 = load float, ptr %17, align 4, !tbaa !31
  store float %46, ptr %7, align 4
  store i32 1, ptr %15, align 4
  call void @llvm.lifetime.end.p0(i64 4, ptr %17) #3
  call void @llvm.lifetime.end.p0(i64 4, ptr %16) #3
  br label %47

47:                                               ; preds = %33, %31
  call void @llvm.lifetime.end.p0(i64 4, ptr %14) #3
  br label %48

48:                                               ; preds = %47, %20
  %49 = load float, ptr %7, align 4
  ret float %49
}

; Function Attrs: inlinehint mustprogress nounwind uwtable
define linkonce_odr noundef nonnull align 4 dereferenceable(4) ptr @_ZSt3maxIfERKT_S2_S2_(ptr noundef nonnull align 4 dereferenceable(4) %0, ptr noundef nonnull align 4 dereferenceable(4) %1) #10 comdat {
  %3 = alloca ptr, align 8
  %4 = alloca ptr, align 8
  %5 = alloca ptr, align 8
  store ptr %0, ptr %4, align 8, !tbaa !29
  store ptr %1, ptr %5, align 8, !tbaa !29
  %6 = load ptr, ptr %4, align 8, !tbaa !29
  %7 = load float, ptr %6, align 4, !tbaa !31
  %8 = load ptr, ptr %5, align 8, !tbaa !29
  %9 = load float, ptr %8, align 4, !tbaa !31
  %10 = fcmp olt float %7, %9
  br i1 %10, label %11, label %13

11:                                               ; preds = %2
  %12 = load ptr, ptr %5, align 8, !tbaa !29
  store ptr %12, ptr %3, align 8
  br label %15

13:                                               ; preds = %2
  %14 = load ptr, ptr %4, align 8, !tbaa !29
  store ptr %14, ptr %3, align 8
  br label %15

15:                                               ; preds = %13, %11
  %16 = load ptr, ptr %3, align 8
  ret ptr %16
}

; Function Attrs: mustprogress uwtable
define hidden void @_ZNK19OpenColorIO_v2_5dev29Renderer_ACES_GamutComp13_Fwd5applyEPKvPvl(ptr noundef nonnull align 8 dereferenceable(48) %0, ptr noundef %1, ptr noundef %2, i64 noundef %3) unnamed_addr #6 align 2 {
  %5 = alloca ptr, align 8
  %6 = alloca ptr, align 8
  %7 = alloca ptr, align 8
  %8 = alloca i64, align 8
  %9 = alloca ptr, align 8
  %10 = alloca ptr, align 8
  %11 = alloca i64, align 8
  %12 = alloca float, align 4
  %13 = alloca float, align 4
  %14 = alloca float, align 4
  %15 = alloca float, align 4
  store ptr %0, ptr %5, align 8, !tbaa !63
  store ptr %1, ptr %6, align 8, !tbaa !26
  store ptr %2, ptr %7, align 8, !tbaa !26
  store i64 %3, ptr %8, align 8, !tbaa !27
  %16 = load ptr, ptr %5, align 8
  call void @llvm.lifetime.start.p0(i64 8, ptr %9) #3
  %17 = load ptr, ptr %6, align 8, !tbaa !26
  store ptr %17, ptr %9, align 8, !tbaa !29
  call void @llvm.lifetime.start.p0(i64 8, ptr %10) #3
  %18 = load ptr, ptr %7, align 8, !tbaa !26
  store ptr %18, ptr %10, align 8, !tbaa !29
  call void @llvm.lifetime.start.p0(i64 8, ptr %11) #3
  store i64 0, ptr %11, align 8, !tbaa !27
  br label %19

19:                                               ; preds = %79, %4
  %20 = load i64, ptr %11, align 8, !tbaa !27
  %21 = load i64, ptr %8, align 8, !tbaa !27
  %22 = icmp slt i64 %20, %21
  br i1 %22, label %24, label %23

23:                                               ; preds = %19
  call void @llvm.lifetime.end.p0(i64 8, ptr %11) #3
  br label %82

24:                                               ; preds = %19
  call void @llvm.lifetime.start.p0(i64 4, ptr %12) #3
  %25 = load ptr, ptr %9, align 8, !tbaa !29
  %26 = getelementptr inbounds float, ptr %25, i64 0
  %27 = load float, ptr %26, align 4, !tbaa !31
  store float %27, ptr %12, align 4, !tbaa !31
  call void @llvm.lifetime.start.p0(i64 4, ptr %13) #3
  %28 = load ptr, ptr %9, align 8, !tbaa !29
  %29 = getelementptr inbounds float, ptr %28, i64 1
  %30 = load float, ptr %29, align 4, !tbaa !31
  store float %30, ptr %13, align 4, !tbaa !31
  call void @llvm.lifetime.start.p0(i64 4, ptr %14) #3
  %31 = load ptr, ptr %9, align 8, !tbaa !29
  %32 = getelementptr inbounds float, ptr %31, i64 2
  %33 = load float, ptr %32, align 4, !tbaa !31
  store float %33, ptr %14, align 4, !tbaa !31
  call void @llvm.lifetime.start.p0(i64 4, ptr %15) #3
  %34 = call noundef nonnull align 4 dereferenceable(4) ptr @_ZSt3maxIfERKT_S2_S2_(ptr noundef nonnull align 4 dereferenceable(4) %13, ptr noundef nonnull align 4 dereferenceable(4) %14)
  %35 = call noundef nonnull align 4 dereferenceable(4) ptr @_ZSt3maxIfERKT_S2_S2_(ptr noundef nonnull align 4 dereferenceable(4) %12, ptr noundef nonnull align 4 dereferenceable(4) %34)
  %36 = load float, ptr %35, align 4, !tbaa !31
  store float %36, ptr %15, align 4, !tbaa !31
  %37 = load float, ptr %12, align 4, !tbaa !31
  %38 = load float, ptr %15, align 4, !tbaa !31
  %39 = getelementptr inbounds nuw %"class.OpenColorIO_v2_5dev::Renderer_ACES_GamutComp13_Fwd", ptr %16, i32 0, i32 4
  %40 = load float, ptr %39, align 4, !tbaa !69
  %41 = getelementptr inbounds nuw %"class.OpenColorIO_v2_5dev::Renderer_ACES_GamutComp13_Fwd", ptr %16, i32 0, i32 8
  %42 = load float, ptr %41, align 4, !tbaa !75
  %43 = getelementptr inbounds nuw %"class.OpenColorIO_v2_5dev::Renderer_ACES_GamutComp13_Fwd", ptr %16, i32 0, i32 7
  %44 = load float, ptr %43, align 8, !tbaa !72
  %45 = call noundef float @_ZN19OpenColorIO_v2_5dev10gamut_compIPFfffffEEEffffffT_(float noundef %37, float noundef %38, float noundef %40, float noundef %42, float noundef %44, ptr noundef @_ZN19OpenColorIO_v2_5dev8compressEffff)
  %46 = load ptr, ptr %10, align 8, !tbaa !29
  %47 = getelementptr inbounds float, ptr %46, i64 0
  store float %45, ptr %47, align 4, !tbaa !31
  %48 = load float, ptr %13, align 4, !tbaa !31
  %49 = load float, ptr %15, align 4, !tbaa !31
  %50 = getelementptr inbounds nuw %"class.OpenColorIO_v2_5dev::Renderer_ACES_GamutComp13_Fwd", ptr %16, i32 0, i32 5
  %51 = load float, ptr %50, align 8, !tbaa !70
  %52 = getelementptr inbounds nuw %"class.OpenColorIO_v2_5dev::Renderer_ACES_GamutComp13_Fwd", ptr %16, i32 0, i32 9
  %53 = load float, ptr %52, align 8, !tbaa !76
  %54 = getelementptr inbounds nuw %"class.OpenColorIO_v2_5dev::Renderer_ACES_GamutComp13_Fwd", ptr %16, i32 0, i32 7
  %55 = load float, ptr %54, align 8, !tbaa !72
  %56 = call noundef float @_ZN19OpenColorIO_v2_5dev10gamut_compIPFfffffEEEffffffT_(float noundef %48, float noundef %49, float noundef %51, float noundef %53, float noundef %55, ptr noundef @_ZN19OpenColorIO_v2_5dev8compressEffff)
  %57 = load ptr, ptr %10, align 8, !tbaa !29
  %58 = getelementptr inbounds float, ptr %57, i64 1
  store float %56, ptr %58, align 4, !tbaa !31
  %59 = load float, ptr %14, align 4, !tbaa !31
  %60 = load float, ptr %15, align 4, !tbaa !31
  %61 = getelementptr inbounds nuw %"class.OpenColorIO_v2_5dev::Renderer_ACES_GamutComp13_Fwd", ptr %16, i32 0, i32 6
  %62 = load float, ptr %61, align 4, !tbaa !71
  %63 = getelementptr inbounds nuw %"class.OpenColorIO_v2_5dev::Renderer_ACES_GamutComp13_Fwd", ptr %16, i32 0, i32 10
  %64 = load float, ptr %63, align 4, !tbaa !77
  %65 = getelementptr inbounds nuw %"class.OpenColorIO_v2_5dev::Renderer_ACES_GamutComp13_Fwd", ptr %16, i32 0, i32 7
  %66 = load float, ptr %65, align 8, !tbaa !72
  %67 = call noundef float @_ZN19OpenColorIO_v2_5dev10gamut_compIPFfffffEEEffffffT_(float noundef %59, float noundef %60, float noundef %62, float noundef %64, float noundef %66, ptr noundef @_ZN19OpenColorIO_v2_5dev8compressEffff)
  %68 = load ptr, ptr %10, align 8, !tbaa !29
  %69 = getelementptr inbounds float, ptr %68, i64 2
  store float %67, ptr %69, align 4, !tbaa !31
  %70 = load ptr, ptr %9, align 8, !tbaa !29
  %71 = getelementptr inbounds float, ptr %70, i64 3
  %72 = load float, ptr %71, align 4, !tbaa !31
  %73 = load ptr, ptr %10, align 8, !tbaa !29
  %74 = getelementptr inbounds float, ptr %73, i64 3
  store float %72, ptr %74, align 4, !tbaa !31
  %75 = load ptr, ptr %9, align 8, !tbaa !29
  %76 = getelementptr inbounds float, ptr %75, i64 4
  store ptr %76, ptr %9, align 8, !tbaa !29
  %77 = load ptr, ptr %10, align 8, !tbaa !29
  %78 = getelementptr inbounds float, ptr %77, i64 4
  store ptr %78, ptr %10, align 8, !tbaa !29
  call void @llvm.lifetime.end.p0(i64 4, ptr %15) #3
  call void @llvm.lifetime.end.p0(i64 4, ptr %14) #3
  call void @llvm.lifetime.end.p0(i64 4, ptr %13) #3
  call void @llvm.lifetime.end.p0(i64 4, ptr %12) #3
  br label %79

79:                                               ; preds = %24
  %80 = load i64, ptr %11, align 8, !tbaa !27
  %81 = add nsw i64 %80, 1
  store i64 %81, ptr %11, align 8, !tbaa !27
  br label %19, !llvm.loop !87

82:                                               ; preds = %23
  call void @llvm.lifetime.end.p0(i64 8, ptr %10) #3
  call void @llvm.lifetime.end.p0(i64 8, ptr %9) #3
  ret void
}