; Function Attrs: mustprogress nofree nounwind memory(write, argmem: readwrite) uwtable
define hidden void @_ZNK19OpenColorIO_v2_5dev29Renderer_ACES_GamutComp13_Fwd5applyEPKvPvl(ptr noundef nonnull readonly align 8 captures(none) dereferenceable(48) %0, ptr noundef readonly captures(none) %1, ptr noundef writeonly captures(none) %2, i64 noundef %3) unnamed_addr #5 align 2 {
  %5 = icmp sgt i64 %3, 0
  br i1 %5, label %.lr.ph, label %._crit_edge

.lr.ph:                                           ; preds = %4
  %6 = getelementptr inbounds nuw i8, ptr %0, i64 20
  %7 = getelementptr inbounds nuw i8, ptr %0, i64 36
  %8 = getelementptr inbounds nuw i8, ptr %0, i64 32
  %9 = getelementptr inbounds nuw i8, ptr %0, i64 24
  %10 = getelementptr inbounds nuw i8, ptr %0, i64 40
  %11 = getelementptr inbounds nuw i8, ptr %0, i64 28
  %12 = getelementptr inbounds nuw i8, ptr %0, i64 44
  br label %13

._crit_edge:                                      ; preds = %_ZN19OpenColorIO_v2_5dev10gamut_compIPFfffffEEEffffffT_.exit24, %4
  ret void

13:                                               ; preds = %.lr.ph, %_ZN19OpenColorIO_v2_5dev10gamut_compIPFfffffEEEffffffT_.exit24
  %.035 = phi ptr [ %1, %.lr.ph ], [ %87, %_ZN19OpenColorIO_v2_5dev10gamut_compIPFfffffEEEffffffT_.exit24 ]
  %.01834 = phi i64 [ 0, %.lr.ph ], [ %89, %_ZN19OpenColorIO_v2_5dev10gamut_compIPFfffffEEEffffffT_.exit24 ]
  %.01933 = phi ptr [ %2, %.lr.ph ], [ %88, %_ZN19OpenColorIO_v2_5dev10gamut_compIPFfffffEEEffffffT_.exit24 ]
  %14 = load float, ptr %.035, align 4, !tbaa !13
  %15 = getelementptr inbounds nuw i8, ptr %.035, i64 4
  %16 = load float, ptr %15, align 4, !tbaa !13
  %17 = getelementptr inbounds nuw i8, ptr %.035, i64 8
  %18 = load float, ptr %17, align 4, !tbaa !13
  %19 = fcmp olt float %16, %18
  %20 = select i1 %19, float %18, float %16
  %21 = fcmp olt float %14, %20
  %.sroa.speculated = select i1 %21, float %20, float %14
  %22 = load float, ptr %6, align 4, !tbaa !48
  %23 = load float, ptr %7, align 4, !tbaa !52
  %24 = load float, ptr %8, align 8, !tbaa !51
  %25 = fcmp oeq float %.sroa.speculated, 0.000000e+00
  br i1 %25, label %_ZN19OpenColorIO_v2_5dev10gamut_compIPFfffffEEEffffffT_.exit22, label %26

26:                                               ; preds = %13
  %27 = fsub float %.sroa.speculated, %14
  %28 = tail call noundef float @llvm.fabs.f32(float %.sroa.speculated)
  %29 = fdiv float %27, %28
  %30 = fcmp olt float %29, %22
  br i1 %30, label %43, label %31

31:                                               ; preds = %26
  %32 = fsub float %29, %22
  %33 = fdiv float %32, %23
  %34 = tail call noundef float @powf(float noundef %33, float noundef %24) #28, !tbaa !14
  %35 = fmul float %23, %33
  %36 = fadd float %34, 1.000000e+00
  %37 = fdiv float 1.000000e+00, %24
  %38 = tail call noundef float @powf(float noundef %36, float noundef %37) #28, !tbaa !14
  %39 = fdiv float %35, %38
  %40 = fadd float %22, %39
  %41 = fneg float %40
  %42 = tail call float @llvm.fmuladd.f32(float %41, float %28, float %.sroa.speculated)
  br label %43

43:                                               ; preds = %26, %31
  %.0.i.ph = phi float [ %14, %26 ], [ %42, %31 ]
  store float %.0.i.ph, ptr %.01933, align 4, !tbaa !13
  %44 = load float, ptr %9, align 8, !tbaa !49
  %45 = fsub float %.sroa.speculated, %16
  %46 = fdiv float %45, %28
  %47 = fcmp olt float %46, %44
  br i1 %47, label %63, label %48

48:                                               ; preds = %43
  %49 = load float, ptr %8, align 8, !tbaa !51
  %50 = load float, ptr %10, align 8, !tbaa !53
  %51 = fsub float %46, %44
  %52 = fdiv float %51, %50
  %53 = tail call noundef float @powf(float noundef %52, float noundef %49) #28, !tbaa !14
  %54 = fmul float %50, %52
  %55 = fadd float %53, 1.000000e+00
  %56 = fdiv float 1.000000e+00, %49
  %57 = tail call noundef float @powf(float noundef %55, float noundef %56) #28, !tbaa !14
  %58 = fdiv float %54, %57
  %59 = fadd float %44, %58
  %60 = fneg float %59
  %61 = tail call float @llvm.fmuladd.f32(float %60, float %28, float %.sroa.speculated)
  br label %63

_ZN19OpenColorIO_v2_5dev10gamut_compIPFfffffEEEffffffT_.exit22: ; preds = %13
  store float 0.000000e+00, ptr %.01933, align 4, !tbaa !13
  %62 = getelementptr inbounds nuw i8, ptr %.01933, i64 4
  store float 0.000000e+00, ptr %62, align 4, !tbaa !13
  br label %_ZN19OpenColorIO_v2_5dev10gamut_compIPFfffffEEEffffffT_.exit24

63:                                               ; preds = %43, %48
  %.0.i21.ph = phi float [ %16, %43 ], [ %61, %48 ]
  %64 = getelementptr inbounds nuw i8, ptr %.01933, i64 4
  store float %.0.i21.ph, ptr %64, align 4, !tbaa !13
  %65 = load float, ptr %11, align 4, !tbaa !50
  %66 = fsub float %.sroa.speculated, %18
  %67 = fdiv float %66, %28
  %68 = fcmp olt float %67, %65
  br i1 %68, label %_ZN19OpenColorIO_v2_5dev10gamut_compIPFfffffEEEffffffT_.exit24, label %69

69:                                               ; preds = %63
  %70 = load float, ptr %8, align 8, !tbaa !51
  %71 = load float, ptr %12, align 4, !tbaa !54
  %72 = fsub float %67, %65
  %73 = fdiv float %72, %71
  %74 = tail call noundef float @powf(float noundef %73, float noundef %70) #28, !tbaa !14
  %75 = fmul float %71, %73
  %76 = fadd float %74, 1.000000e+00
  %77 = fdiv float 1.000000e+00, %70
  %78 = tail call noundef float @powf(float noundef %76, float noundef %77) #28, !tbaa !14
  %79 = fdiv float %75, %78
  %80 = fadd float %65, %79
  %81 = fneg float %80
  %82 = tail call float @llvm.fmuladd.f32(float %81, float %28, float %.sroa.speculated)
  br label %_ZN19OpenColorIO_v2_5dev10gamut_compIPFfffffEEEffffffT_.exit24

_ZN19OpenColorIO_v2_5dev10gamut_compIPFfffffEEEffffffT_.exit24: ; preds = %_ZN19OpenColorIO_v2_5dev10gamut_compIPFfffffEEEffffffT_.exit22, %63, %69
  %.0.i23 = phi float [ 0.000000e+00, %_ZN19OpenColorIO_v2_5dev10gamut_compIPFfffffEEEffffffT_.exit22 ], [ %82, %69 ], [ %18, %63 ]
  %83 = getelementptr inbounds nuw i8, ptr %.01933, i64 8
  store float %.0.i23, ptr %83, align 4, !tbaa !13
  %84 = getelementptr inbounds nuw i8, ptr %.035, i64 12
  %85 = load float, ptr %84, align 4, !tbaa !13
  %86 = getelementptr inbounds nuw i8, ptr %.01933, i64 12
  store float %85, ptr %86, align 4, !tbaa !13
  %87 = getelementptr inbounds nuw i8, ptr %.035, i64 16
  %88 = getelementptr inbounds nuw i8, ptr %.01933, i64 16
  %89 = add nuw nsw i64 %.01834, 1
  %exitcond.not = icmp eq i64 %89, %3
  br i1 %exitcond.not, label %._crit_edge, label %13, !llvm.loop !55
}